target datalayout = "e-m:e-p270:32:32-p271:32:32-p272:64:64-i64:64-i128:128-f80:128-n8:16:32:64-S128"
target triple = "x86_64-pc-linux-gnu"

%struct.pmix_value = type { i16, %union.anon }
%union.anon = type { %struct.pmix_envar_t }
%struct.pmix_envar_t = type { ptr, ptr, i8 }
%struct.pmix_info = type { [512 x i8], i32, %struct.pmix_value }
%struct.pmix_query = type { ptr, ptr, i64 }

@.str = private unnamed_addr constant [2 x i8] c" \00", align 1
@.str.74 = private unnamed_addr constant [29 x i8] c"%sKEY: %s DIRECTIVES: %0x %s\00", align 1
@.str.75 = private unnamed_addr constant [17 x i8] c"PMIX_VALUE: NULL\00", align 1
@.str.92 = private unnamed_addr constant [4 x i8] c"%s\09\00", align 1
@.str.95 = private unnamed_addr constant [31 x i8] c"%sData type: PMIX_QUERY\09Value:\00", align 1
@.str.96 = private unnamed_addr constant [13 x i8] c"%s\0A%sKey: %s\00", align 1
@.str.97 = private unnamed_addr constant [6 x i8] c"%s\0A%s\00", align 1

; Function Attrs: nounwind uwtable
define i32 @pmix20_bfrop_print_info(ptr noundef %0, ptr noundef %1, ptr noundef %2, i16 noundef zeroext %3) #0 {
  %5 = alloca i32, align 4
  %6 = alloca ptr, align 8
  %7 = alloca ptr, align 8
  %8 = alloca ptr, align 8
  %9 = alloca i16, align 2
  %10 = alloca ptr, align 8
  %11 = alloca i32, align 4
  %12 = alloca i32, align 4
  store ptr %0, ptr %6, align 8, !tbaa !3
  store ptr %1, ptr %7, align 8, !tbaa !8
  store ptr %2, ptr %8, align 8, !tbaa !66
  store i16 %3, ptr %9, align 2, !tbaa !11
  call void @llvm.lifetime.start.p0(i64 8, ptr %10) #7
  call void @llvm.lifetime.start.p0(i64 4, ptr %11) #7
  %13 = load ptr, ptr %8, align 8, !tbaa !66
  %14 = getelementptr inbounds nuw %struct.pmix_info, ptr %13, i32 0, i32 2
  %15 = call i32 @pmix20_bfrop_print_value(ptr noundef %10, ptr noundef null, ptr noundef %14, i16 noundef zeroext 21)
  %16 = load ptr, ptr %6, align 8, !tbaa !3
  %17 = load ptr, ptr %7, align 8, !tbaa !8
  %18 = load ptr, ptr %8, align 8, !tbaa !66
  %19 = getelementptr inbounds nuw %struct.pmix_info, ptr %18, i32 0, i32 0
  %20 = getelementptr inbounds [512 x i8], ptr %19, i64 0, i64 0
  %21 = load ptr, ptr %8, align 8, !tbaa !66
  %22 = getelementptr inbounds nuw %struct.pmix_info, ptr %21, i32 0, i32 1
  %23 = load i32, ptr %22, align 8, !tbaa !68
  %24 = load ptr, ptr %10, align 8, !tbaa !8
  %25 = icmp eq ptr null, %24
  br i1 %25, label %26, label %27

26:                                               ; preds = %4
  br label %29

27:                                               ; preds = %4
  %28 = load ptr, ptr %10, align 8, !tbaa !8
  br label %29

29:                                               ; preds = %27, %26
  %30 = phi ptr [ @.str.75, %26 ], [ %28, %27 ]
  %31 = call i32 (ptr, ptr, ...) @asprintf(ptr noundef %16, ptr noundef @.str.74, ptr noundef %17, ptr noundef %20, i32 noundef %23, ptr noundef %30) #7
  store i32 %31, ptr %11, align 4, !tbaa !21
  %32 = load ptr, ptr %10, align 8, !tbaa !8
  %33 = icmp ne ptr null, %32
  br i1 %33, label %34, label %36

34:                                               ; preds = %29
  %35 = load ptr, ptr %10, align 8, !tbaa !8
  call void @free(ptr noundef %35) #7
  br label %36

36:                                               ; preds = %34, %29
  %37 = load i32, ptr %11, align 4, !tbaa !21
  %38 = icmp sgt i32 0, %37
  br i1 %38, label %39, label %40

39:                                               ; preds = %36
  store i32 -32, ptr %5, align 4
  store i32 1, ptr %12, align 4
  br label %41

40:                                               ; preds = %36
  store i32 0, ptr %5, align 4
  store i32 1, ptr %12, align 4
  br label %41

41:                                               ; preds = %40, %39
  call void @llvm.lifetime.end.p0(i64 4, ptr %11) #7
  call void @llvm.lifetime.end.p0(i64 8, ptr %10) #7
  %42 = load i32, ptr %5, align 4
  ret i32 %42
}

; Function Attrs: nounwind uwtable
define i32 @pmix20_bfrop_print_query(ptr noundef %0, ptr noundef %1, ptr noundef %2, i16 noundef zeroext %3) #0 {
  %5 = alloca i32, align 4
  %6 = alloca ptr, align 8
  %7 = alloca ptr, align 8
  %8 = alloca ptr, align 8
  %9 = alloca i16, align 2
  %10 = alloca ptr, align 8
  %11 = alloca ptr, align 8
  %12 = alloca i32, align 4
  %13 = alloca ptr, align 8
  %14 = alloca ptr, align 8
  %15 = alloca ptr, align 8
  %16 = alloca i64, align 8
  %17 = alloca i32, align 4
  store ptr %0, ptr %6, align 8, !tbaa !3
  store ptr %1, ptr %7, align 8, !tbaa !8
  store ptr %2, ptr %8, align 8, !tbaa !88
  store i16 %3, ptr %9, align 2, !tbaa !11
  call void @llvm.lifetime.start.p0(i64 8, ptr %10) #7
  call void @llvm.lifetime.start.p0(i64 8, ptr %11) #7
  call void @llvm.lifetime.start.p0(i64 4, ptr %12) #7
  store i32 0, ptr %12, align 4, !tbaa !21
  call void @llvm.lifetime.start.p0(i64 8, ptr %13) #7
  call void @llvm.lifetime.start.p0(i64 8, ptr %14) #7
  call void @llvm.lifetime.start.p0(i64 8, ptr %15) #7
  call void @llvm.lifetime.start.p0(i64 8, ptr %16) #7
  %18 = load ptr, ptr %7, align 8, !tbaa !8
  %19 = icmp eq ptr null, %18
  br i1 %19, label %20, label %25

20:                                               ; preds = %4
  %21 = call i32 (ptr, ptr, ...) @asprintf(ptr noundef %10, ptr noundef @.str) #7
  %22 = icmp sgt i32 0, %21
  br i1 %22, label %23, label %24

23:                                               ; preds = %20
  store i32 -32, ptr %5, align 4
  store i32 1, ptr %17, align 4
  br label %124

24:                                               ; preds = %20
  br label %27

25:                                               ; preds = %4
  %26 = load ptr, ptr %7, align 8, !tbaa !8
  store ptr %26, ptr %10, align 8, !tbaa !8
  br label %27

27:                                               ; preds = %25, %24
  %28 = load ptr, ptr %10, align 8, !tbaa !8
  %29 = call i32 (ptr, ptr, ...) @asprintf(ptr noundef %11, ptr noundef @.str.92, ptr noundef %28) #7
  %30 = icmp sgt i32 0, %29
  br i1 %30, label %31, label %32

31:                                               ; preds = %27
  store i32 -32, ptr %12, align 4, !tbaa !21
  br label %116

32:                                               ; preds = %27
  %33 = load ptr, ptr %10, align 8, !tbaa !8
  %34 = call i32 (ptr, ptr, ...) @asprintf(ptr noundef %13, ptr noundef @.str.95, ptr noundef %33) #7
  %35 = icmp sgt i32 0, %34
  br i1 %35, label %36, label %38

36:                                               ; preds = %32
  %37 = load ptr, ptr %11, align 8, !tbaa !8
  call void @free(ptr noundef %37) #7
  store i32 -32, ptr %12, align 4, !tbaa !21
  br label %116

38:                                               ; preds = %32
  %39 = load ptr, ptr %8, align 8, !tbaa !88
  %40 = getelementptr inbounds nuw %struct.pmix_query, ptr %39, i32 0, i32 0
  %41 = load ptr, ptr %40, align 8, !tbaa !90
  %42 = icmp ne ptr null, %41
  br i1 %42, label %43, label %73

43:                                               ; preds = %38
  store i64 0, ptr %16, align 8, !tbaa !34
  br label %44

44:                                               ; preds = %69, %43
  %45 = load ptr, ptr %8, align 8, !tbaa !88
  %46 = getelementptr inbounds nuw %struct.pmix_query, ptr %45, i32 0, i32 0
  %47 = load ptr, ptr %46, align 8, !tbaa !90
  %48 = load i64, ptr %16, align 8, !tbaa !34
  %49 = getelementptr inbounds nuw ptr, ptr %47, i64 %48
  %50 = load ptr, ptr %49, align 8, !tbaa !8
  %51 = icmp ne ptr null, %50
  br i1 %51, label %52, label %72

52:                                               ; preds = %44
  %53 = load ptr, ptr %13, align 8, !tbaa !8
  %54 = load ptr, ptr %11, align 8, !tbaa !8
  %55 = load ptr, ptr %8, align 8, !tbaa !88
  %56 = getelementptr inbounds nuw %struct.pmix_query, ptr %55, i32 0, i32 0
  %57 = load ptr, ptr %56, align 8, !tbaa !90
  %58 = load i64, ptr %16, align 8, !tbaa !34
  %59 = getelementptr inbounds nuw ptr, ptr %57, i64 %58
  %60 = load ptr, ptr %59, align 8, !tbaa !8
  %61 = call i32 (ptr, ptr, ...) @asprintf(ptr noundef %14, ptr noundef @.str.96, ptr noundef %53, ptr noundef %54, ptr noundef %60) #7
  %62 = icmp sgt i32 0, %61
  br i1 %62, label %63, label %66

63:                                               ; preds = %52
  %64 = load ptr, ptr %11, align 8, !tbaa !8
  call void @free(ptr noundef %64) #7
  %65 = load ptr, ptr %13, align 8, !tbaa !8
  call void @free(ptr noundef %65) #7
  store i32 -32, ptr %12, align 4, !tbaa !21
  br label %116

66:                                               ; preds = %52
  %67 = load ptr, ptr %13, align 8, !tbaa !8
  call void @free(ptr noundef %67) #7
  %68 = load ptr, ptr %14, align 8, !tbaa !8
  store ptr %68, ptr %13, align 8, !tbaa !8
  br label %69

69:                                               ; preds = %66
  %70 = load i64, ptr %16, align 8, !tbaa !34
  %71 = add i64 %70, 1
  store i64 %71, ptr %16, align 8, !tbaa !34
  br label %44, !llvm.loop !92

72:                                               ; preds = %44
  br label %73

73:                                               ; preds = %72, %38
  %74 = load ptr, ptr %8, align 8, !tbaa !88
  %75 = getelementptr inbounds nuw %struct.pmix_query, ptr %74, i32 0, i32 2
  %76 = load i64, ptr %75, align 8, !tbaa !94
  %77 = icmp ult i64 0, %76
  br i1 %77, label %78, label %113

78:                                               ; preds = %73
  store i64 0, ptr %16, align 8, !tbaa !34
  br label %79

79:                                               ; preds = %109, %78
  %80 = load i64, ptr %16, align 8, !tbaa !34
  %81 = load ptr, ptr %8, align 8, !tbaa !88
  %82 = getelementptr inbounds nuw %struct.pmix_query, ptr %81, i32 0, i32 2
  %83 = load i64, ptr %82, align 8, !tbaa !94
  %84 = icmp ult i64 %80, %83
  br i1 %84, label %85, label %112

85:                                               ; preds = %79
  %86 = load ptr, ptr %11, align 8, !tbaa !8
  %87 = load ptr, ptr %8, align 8, !tbaa !88
  %88 = getelementptr inbounds nuw %struct.pmix_query, ptr %87, i32 0, i32 1
  %89 = load ptr, ptr %88, align 8, !tbaa !95
  %90 = load i64, ptr %16, align 8, !tbaa !34
  %91 = getelementptr inbounds nuw %struct.pmix_info, ptr %89, i64 %90
  %92 = call i32 @pmix20_bfrop_print_info(ptr noundef %14, ptr noundef %86, ptr noundef %91, i16 noundef zeroext 22)
  store i32 %92, ptr %12, align 4, !tbaa !21
  %93 = icmp ne i32 0, %92
  br i1 %93, label %94, label %96

94:                                               ; preds = %85
  %95 = load ptr, ptr %11, align 8, !tbaa !8
  call void @free(ptr noundef %95) #7
  br label %116

96:                                               ; preds = %85
  %97 = load ptr, ptr %13, align 8, !tbaa !8
  %98 = load ptr, ptr %14, align 8, !tbaa !8
  %99 = call i32 (ptr, ptr, ...) @asprintf(ptr noundef %15, ptr noundef @.str.97, ptr noundef %97, ptr noundef %98) #7
  %100 = icmp sgt i32 0, %99
  br i1 %100, label %101, label %105

101:                                              ; preds = %96
  %102 = load ptr, ptr %11, align 8, !tbaa !8
  call void @free(ptr noundef %102) #7
  %103 = load ptr, ptr %13, align 8, !tbaa !8
  call void @free(ptr noundef %103) #7
  %104 = load ptr, ptr %14, align 8, !tbaa !8
  call void @free(ptr noundef %104) #7
  store i32 -32, ptr %12, align 4, !tbaa !21
  br label %116

105:                                              ; preds = %96
  %106 = load ptr, ptr %13, align 8, !tbaa !8
  call void @free(ptr noundef %106) #7
  %107 = load ptr, ptr %14, align 8, !tbaa !8
  call void @free(ptr noundef %107) #7
  %108 = load ptr, ptr %15, align 8, !tbaa !8
  store ptr %108, ptr %13, align 8, !tbaa !8
  br label %109

109:                                              ; preds = %105
  %110 = load i64, ptr %16, align 8, !tbaa !34
  %111 = add i64 %110, 1
  store i64 %111, ptr %16, align 8, !tbaa !34
  br label %79, !llvm.loop !96

112:                                              ; preds = %79
  br label %113

113:                                              ; preds = %112, %73
  %114 = load ptr, ptr %13, align 8, !tbaa !8
  %115 = load ptr, ptr %6, align 8, !tbaa !3
  store ptr %114, ptr %115, align 8, !tbaa !8
  br label %116

116:                                              ; preds = %113, %101, %94, %63, %36, %31
  %117 = load ptr, ptr %10, align 8, !tbaa !8
  %118 = load ptr, ptr %7, align 8, !tbaa !8
  %119 = icmp ne ptr %117, %118
  br i1 %119, label %120, label %122

120:                                              ; preds = %116
  %121 = load ptr, ptr %10, align 8, !tbaa !8
  call void @free(ptr noundef %121) #7
  br label %122

122:                                              ; preds = %120, %116
  %123 = load i32, ptr %12, align 4, !tbaa !21
  store i32 %123, ptr %5, align 4
  store i32 1, ptr %17, align 4
  br label %124

124:                                              ; preds = %122, %23
  call void @llvm.lifetime.end.p0(i64 8, ptr %16) #7
  call void @llvm.lifetime.end.p0(i64 8, ptr %15) #7
  call void @llvm.lifetime.end.p0(i64 8, ptr %14) #7
  call void @llvm.lifetime.end.p0(i64 8, ptr %13) #7
  call void @llvm.lifetime.end.p0(i64 4, ptr %12) #7
  call void @llvm.lifetime.end.p0(i64 8, ptr %11) #7
  call void @llvm.lifetime.end.p0(i64 8, ptr %10) #7
  %125 = load i32, ptr %5, align 4
  ret i32 %125
}