; Function Attrs: nounwind uwtable
define range(i32 -32, 1) i32 @pmix20_bfrop_print_query(ptr noundef writeonly captures(none) %0, ptr noundef %1, ptr noundef readonly captures(none) %2, i16 noundef zeroext %3) local_unnamed_addr #0 {
  %5 = alloca ptr, align 8
  %6 = alloca ptr, align 8
  %7 = alloca ptr, align 8
  %8 = alloca ptr, align 8
  %9 = alloca ptr, align 8
  %10 = alloca ptr, align 8
  call void @llvm.lifetime.start.p0(i64 8, ptr nonnull %6) #7
  call void @llvm.lifetime.start.p0(i64 8, ptr nonnull %7) #7
  call void @llvm.lifetime.start.p0(i64 8, ptr nonnull %8) #7
  call void @llvm.lifetime.start.p0(i64 8, ptr nonnull %9) #7
  call void @llvm.lifetime.start.p0(i64 8, ptr nonnull %10) #7
  %11 = icmp eq ptr %1, null
  br i1 %11, label %12, label %15

12:                                               ; preds = %4
  %13 = call i32 (ptr, ptr, ...) @asprintf(ptr noundef nonnull %6, ptr noundef nonnull @.str) #7
  %14 = icmp slt i32 %13, 0
  br i1 %14, label %84, label %._crit_edge

._crit_edge:                                      ; preds = %12
  %.pre = load ptr, ptr %6, align 8, !tbaa !20
  br label %16

15:                                               ; preds = %4
  store ptr %1, ptr %6, align 8, !tbaa !20
  br label %16

16:                                               ; preds = %._crit_edge, %15
  %17 = phi ptr [ %.pre, %._crit_edge ], [ %1, %15 ]
  %18 = call i32 (ptr, ptr, ...) @asprintf(ptr noundef nonnull %7, ptr noundef nonnull @.str.92, ptr noundef %17) #7
  %19 = icmp slt i32 %18, 0
  br i1 %19, label %81, label %20

20:                                               ; preds = %16
  %21 = load ptr, ptr %6, align 8, !tbaa !20
  %22 = call i32 (ptr, ptr, ...) @asprintf(ptr noundef nonnull %8, ptr noundef nonnull @.str.95, ptr noundef %21) #7
  %23 = icmp slt i32 %22, 0
  br i1 %23, label %24, label %26

24:                                               ; preds = %20
  %25 = load ptr, ptr %7, align 8, !tbaa !20
  call void @free(ptr noundef %25) #7
  br label %81

26:                                               ; preds = %20
  %27 = load ptr, ptr %2, align 8, !tbaa !54
  %.not = icmp eq ptr %27, null
  br i1 %.not, label %.loopexit30, label %.preheader29

.preheader29:                                     ; preds = %26
  %28 = load ptr, ptr %27, align 8, !tbaa !20
  %.not2531 = icmp eq ptr %28, null
  br i1 %.not2531, label %.loopexit30, label %.lr.ph.preheader

.lr.ph.preheader:                                 ; preds = %.preheader29
  %.pre36 = load ptr, ptr %8, align 8, !tbaa !20
  br label %.lr.ph

.lr.ph:                                           ; preds = %.lr.ph.preheader, %37
  %29 = phi ptr [ %39, %37 ], [ %.pre36, %.lr.ph.preheader ]
  %30 = phi ptr [ %43, %37 ], [ %28, %.lr.ph.preheader ]
  %.032 = phi i64 [ %40, %37 ], [ 0, %.lr.ph.preheader ]
  %31 = load ptr, ptr %7, align 8, !tbaa !20
  %32 = call i32 (ptr, ptr, ...) @asprintf(ptr noundef nonnull %9, ptr noundef nonnull @.str.96, ptr noundef %29, ptr noundef %31, ptr noundef nonnull %30) #7
  %33 = icmp slt i32 %32, 0
  br i1 %33, label %34, label %37

34:                                               ; preds = %.lr.ph
  %35 = load ptr, ptr %7, align 8, !tbaa !20
  call void @free(ptr noundef %35) #7
  %36 = load ptr, ptr %8, align 8, !tbaa !20
  call void @free(ptr noundef %36) #7
  br label %81

37:                                               ; preds = %.lr.ph
  %38 = load ptr, ptr %8, align 8, !tbaa !20
  call void @free(ptr noundef %38) #7
  %39 = load ptr, ptr %9, align 8, !tbaa !20
  store ptr %39, ptr %8, align 8, !tbaa !20
  %40 = add i64 %.032, 1
  %41 = load ptr, ptr %2, align 8, !tbaa !54
  %42 = getelementptr inbounds nuw ptr, ptr %41, i64 %40
  %43 = load ptr, ptr %42, align 8, !tbaa !20
  %.not25 = icmp eq ptr %43, null
  br i1 %.not25, label %.loopexit30, label %.lr.ph, !llvm.loop !58

.loopexit30:                                      ; preds = %37, %.preheader29, %26
  %44 = getelementptr inbounds nuw i8, ptr %2, i64 16
  %45 = load i64, ptr %44, align 8, !tbaa !60
  %.not26 = icmp eq i64 %45, 0
  br i1 %.not26, label %.loopexit, label %.lr.ph34

.lr.ph34:                                         ; preds = %.loopexit30
  %46 = getelementptr inbounds nuw i8, ptr %2, i64 8
  br label %47

47:                                               ; preds = %.lr.ph34, %73
  %.133 = phi i64 [ 0, %.lr.ph34 ], [ %77, %73 ]
  %48 = load ptr, ptr %7, align 8, !tbaa !20
  %49 = load ptr, ptr %46, align 8, !tbaa !61
  %50 = getelementptr inbounds nuw %struct.pmix_info, ptr %49, i64 %.133
  call void @llvm.lifetime.start.p0(i64 8, ptr nonnull %5) #7
  %51 = getelementptr inbounds nuw i8, ptr %50, i64 520
  %52 = call i32 @pmix20_bfrop_print_value(ptr noundef nonnull %5, ptr noundef null, ptr noundef nonnull %51, i16 zeroext poison)
  %53 = getelementptr inbounds nuw i8, ptr %50, i64 512
  %54 = load i32, ptr %53, align 8, !tbaa !48
  %55 = load ptr, ptr %5, align 8, !tbaa !20
  %56 = icmp eq ptr %55, null
  %57 = select i1 %56, ptr @.str.75, ptr %55
  %58 = call i32 (ptr, ptr, ...) @asprintf(ptr noundef nonnull %9, ptr noundef nonnull @.str.74, ptr noundef %48, ptr noundef %50, i32 noundef %54, ptr noundef nonnull %57) #7
  %59 = load ptr, ptr %5, align 8, !tbaa !20
  %.not.i = icmp eq ptr %59, null
  br i1 %.not.i, label %pmix20_bfrop_print_info.exit, label %60

60:                                               ; preds = %47
  call void @free(ptr noundef nonnull %59) #7
  br label %pmix20_bfrop_print_info.exit

pmix20_bfrop_print_info.exit:                     ; preds = %47, %60
  %61 = icmp sgt i32 %58, -1
  call void @llvm.lifetime.end.p0(i64 8, ptr nonnull %5) #7
  br i1 %61, label %64, label %62

62:                                               ; preds = %pmix20_bfrop_print_info.exit
  %63 = load ptr, ptr %7, align 8, !tbaa !20
  call void @free(ptr noundef %63) #7
  br label %81

64:                                               ; preds = %pmix20_bfrop_print_info.exit
  %65 = load ptr, ptr %8, align 8, !tbaa !20
  %66 = load ptr, ptr %9, align 8, !tbaa !20
  %67 = call i32 (ptr, ptr, ...) @asprintf(ptr noundef nonnull %10, ptr noundef nonnull @.str.97, ptr noundef %65, ptr noundef %66) #7
  %68 = icmp slt i32 %67, 0
  br i1 %68, label %69, label %73

69:                                               ; preds = %64
  %70 = load ptr, ptr %7, align 8, !tbaa !20
  call void @free(ptr noundef %70) #7
  %71 = load ptr, ptr %8, align 8, !tbaa !20
  call void @free(ptr noundef %71) #7
  %72 = load ptr, ptr %9, align 8, !tbaa !20
  call void @free(ptr noundef %72) #7
  br label %81

73:                                               ; preds = %64
  %74 = load ptr, ptr %8, align 8, !tbaa !20
  call void @free(ptr noundef %74) #7
  %75 = load ptr, ptr %9, align 8, !tbaa !20
  call void @free(ptr noundef %75) #7
  %76 = load ptr, ptr %10, align 8, !tbaa !20
  store ptr %76, ptr %8, align 8, !tbaa !20
  %77 = add nuw i64 %.133, 1
  %78 = load i64, ptr %44, align 8, !tbaa !60
  %79 = icmp ult i64 %77, %78
  br i1 %79, label %47, label %.loopexit, !llvm.loop !62

.loopexit:                                        ; preds = %73, %.loopexit30
  %80 = load ptr, ptr %8, align 8, !tbaa !20
  store ptr %80, ptr %0, align 8, !tbaa !20
  br label %81

81:                                               ; preds = %16, %.loopexit, %69, %62, %34, %24
  %.017 = phi i32 [ -32, %24 ], [ -32, %34 ], [ -32, %62 ], [ -32, %69 ], [ 0, %.loopexit ], [ -32, %16 ]
  %82 = load ptr, ptr %6, align 8, !tbaa !20
  %.not28 = icmp eq ptr %82, %1
  br i1 %.not28, label %84, label %83

83:                                               ; preds = %81
  call void @free(ptr noundef %82) #7
  br label %84

84:                                               ; preds = %81, %83, %12
  %.019 = phi i32 [ -32, %12 ], [ %.017, %83 ], [ %.017, %81 ]
  call void @llvm.lifetime.end.p0(i64 8, ptr nonnull %10) #7
  call void @llvm.lifetime.end.p0(i64 8, ptr nonnull %9) #7
  call void @llvm.lifetime.end.p0(i64 8, ptr nonnull %8) #7
  call void @llvm.lifetime.end.p0(i64 8, ptr nonnull %7) #7
  call void @llvm.lifetime.end.p0(i64 8, ptr nonnull %6) #7
  ret i32 %.019
}